target datalayout = "e-m:e-p270:32:32-p271:32:32-p272:64:64-i64:64-i128:128-f80:128-n8:16:32:64-S128"
target triple = "x86_64-pc-linux-gnu"

%struct.in6_addr = type { %union.anon.14 }
%union.anon.14 = type { [4 x i32] }

@.str.165 = private unnamed_addr constant [12 x i8] c"!$&'()*+,;=\00", align 1

; Function Attrs: nounwind uwtable
define internal i32 @bracket_addr_ok(ptr noundef %0, ptr noundef %1) #0 {
  %3 = alloca i32, align 4
  %4 = alloca ptr, align 8
  %5 = alloca ptr, align 8
  %6 = alloca [64 x i8], align 16
  %7 = alloca i64, align 8
  %8 = alloca %struct.in6_addr, align 4
  %9 = alloca i32, align 4
  store ptr %0, ptr %4, align 8
  store ptr %1, ptr %5, align 8
  %10 = load ptr, ptr %4, align 8
  %11 = getelementptr inbounds i8, ptr %10, i64 3
  %12 = load ptr, ptr %5, align 8
  %13 = icmp ugt ptr %11, %12
  br i1 %13, label %25, label %14

14:                                               ; preds = %2
  %15 = load ptr, ptr %4, align 8
  %16 = load i8, ptr %15, align 1
  %17 = sext i8 %16 to i32
  %18 = icmp ne i32 %17, 91
  br i1 %18, label %25, label %19

19:                                               ; preds = %14
  %20 = load ptr, ptr %5, align 8
  %21 = getelementptr inbounds i8, ptr %20, i64 -1
  %22 = load i8, ptr %21, align 1
  %23 = sext i8 %22 to i32
  %24 = icmp ne i32 %23, 93
  br i1 %24, label %25, label %26

25:                                               ; preds = %19, %14, %2
  store i32 0, ptr %3, align 4
  br label %124

26:                                               ; preds = %19
  %27 = load ptr, ptr %4, align 8
  %28 = getelementptr inbounds i8, ptr %27, i64 1
  %29 = load i8, ptr %28, align 1
  %30 = sext i8 %29 to i32
  %31 = icmp eq i32 %30, 118
  br i1 %31, label %32, label %102

32:                                               ; preds = %26
  %33 = load ptr, ptr %4, align 8
  %34 = getelementptr inbounds i8, ptr %33, i64 2
  store ptr %34, ptr %4, align 8
  %35 = load ptr, ptr %5, align 8
  %36 = getelementptr inbounds i8, ptr %35, i32 -1
  store ptr %36, ptr %5, align 8
  %37 = load ptr, ptr %4, align 8
  %38 = load i8, ptr %37, align 1
  %39 = call i32 @EVUTIL_ISXDIGIT_(i8 noundef signext %38)
  %40 = icmp ne i32 %39, 0
  br i1 %40, label %42, label %41

41:                                               ; preds = %32
  store i32 0, ptr %3, align 4
  br label %124

42:                                               ; preds = %32
  br label %43

43:                                               ; preds = %63, %42
  %44 = load ptr, ptr %4, align 8
  %45 = load ptr, ptr %5, align 8
  %46 = icmp ult ptr %44, %45
  br i1 %46, label %47, label %52

47:                                               ; preds = %43
  %48 = load ptr, ptr %4, align 8
  %49 = load i8, ptr %48, align 1
  %50 = sext i8 %49 to i32
  %51 = icmp ne i32 %50, 46
  br label %52

52:                                               ; preds = %47, %43
  %53 = phi i1 [ false, %43 ], [ %51, %47 ]
  br i1 %53, label %54, label %64

54:                                               ; preds = %52
  %55 = load ptr, ptr %4, align 8
  %56 = load i8, ptr %55, align 1
  %57 = call i32 @EVUTIL_ISXDIGIT_(i8 noundef signext %56)
  %58 = icmp ne i32 %57, 0
  br i1 %58, label %59, label %62

59:                                               ; preds = %54
  %60 = load ptr, ptr %4, align 8
  %61 = getelementptr inbounds nuw i8, ptr %60, i32 1
  store ptr %61, ptr %4, align 8
  br label %63

62:                                               ; preds = %54
  store i32 0, ptr %3, align 4
  br label %124

63:                                               ; preds = %59
  br label %43, !llvm.loop !40

64:                                               ; preds = %52
  %65 = load ptr, ptr %4, align 8
  %66 = load i8, ptr %65, align 1
  %67 = sext i8 %66 to i32
  %68 = icmp ne i32 %67, 46
  br i1 %68, label %69, label %70

69:                                               ; preds = %64
  store i32 0, ptr %3, align 4
  br label %124

70:                                               ; preds = %64
  %71 = load ptr, ptr %4, align 8
  %72 = getelementptr inbounds nuw i8, ptr %71, i32 1
  store ptr %72, ptr %4, align 8
  br label %73

73:                                               ; preds = %100, %70
  %74 = load ptr, ptr %4, align 8
  %75 = load ptr, ptr %5, align 8
  %76 = icmp ult ptr %74, %75
  br i1 %76, label %77, label %101

77:                                               ; preds = %73
  %78 = load ptr, ptr %4, align 8
  %79 = load i8, ptr %78, align 1
  %80 = zext i8 %79 to i64
  %81 = getelementptr inbounds nuw [256 x i8], ptr @uri_chars, i64 0, i64 %80
  %82 = load i8, ptr %81, align 1
  %83 = sext i8 %82 to i32
  %84 = icmp ne i32 %83, 0
  br i1 %84, label %96, label %85

85:                                               ; preds = %77
  %86 = load ptr, ptr %4, align 8
  %87 = load i8, ptr %86, align 1
  %88 = sext i8 %87 to i32
  %89 = call ptr @strchr(ptr noundef @.str.165, i32 noundef %88) #12
  %90 = icmp ne ptr %89, null
  br i1 %90, label %96, label %91

91:                                               ; preds = %85
  %92 = load ptr, ptr %4, align 8
  %93 = load i8, ptr %92, align 1
  %94 = sext i8 %93 to i32
  %95 = icmp eq i32 %94, 58
  br i1 %95, label %96, label %99

96:                                               ; preds = %91, %85, %77
  %97 = load ptr, ptr %4, align 8
  %98 = getelementptr inbounds nuw i8, ptr %97, i32 1
  store ptr %98, ptr %4, align 8
  br label %100

99:                                               ; preds = %91
  store i32 0, ptr %3, align 4
  br label %124

100:                                              ; preds = %96
  br label %73, !llvm.loop !41

101:                                              ; preds = %73
  store i32 2, ptr %3, align 4
  br label %124

102:                                              ; preds = %26
  call void @llvm.lifetime.start.p0(i64 64, ptr %6) #11
  call void @llvm.lifetime.start.p0(i64 8, ptr %7) #11
  %103 = load ptr, ptr %5, align 8
  %104 = load ptr, ptr %4, align 8
  %105 = ptrtoint ptr %103 to i64
  %106 = ptrtoint ptr %104 to i64
  %107 = sub i64 %105, %106
  %108 = sub nsw i64 %107, 2
  store i64 %108, ptr %7, align 8
  call void @llvm.lifetime.start.p0(i64 16, ptr %8) #11
  %109 = load i64, ptr %7, align 8
  %110 = icmp sge i64 %109, 64
  br i1 %110, label %111, label %112

111:                                              ; preds = %102
  store i32 0, ptr %3, align 4
  store i32 1, ptr %9, align 4
  br label %123

112:                                              ; preds = %102
  %113 = getelementptr inbounds [64 x i8], ptr %6, i64 0, i64 0
  %114 = load ptr, ptr %4, align 8
  %115 = getelementptr inbounds i8, ptr %114, i64 1
  %116 = load i64, ptr %7, align 8
  call void @llvm.memcpy.p0.p0.i64(ptr align 16 %113, ptr align 1 %115, i64 %116, i1 false)
  %117 = load i64, ptr %7, align 8
  %118 = getelementptr inbounds [64 x i8], ptr %6, i64 0, i64 %117
  store i8 0, ptr %118, align 1
  %119 = getelementptr inbounds [64 x i8], ptr %6, i64 0, i64 0
  %120 = call i32 @evutil_inet_pton(i32 noundef 10, ptr noundef %119, ptr noundef %8)
  %121 = icmp eq i32 %120, 1
  %122 = select i1 %121, i32 1, i32 0
  store i32 %122, ptr %3, align 4
  store i32 1, ptr %9, align 4
  br label %123

123:                                              ; preds = %112, %111
  call void @llvm.lifetime.end.p0(i64 16, ptr %8) #11
  call void @llvm.lifetime.end.p0(i64 8, ptr %7) #11
  call void @llvm.lifetime.end.p0(i64 64, ptr %6) #11
  br label %124

124:                                              ; preds = %123, %101, %99, %69, %62, %41, %25
  %125 = load i32, ptr %3, align 4
  ret i32 %125
}