; Function Attrs: nounwind uwtable
define internal fastcc range(i32 0, 3) i32 @bracket_addr_ok(ptr noundef nonnull %0, ptr noundef nonnull %1) unnamed_addr #0 {
  %3 = ptrtoint ptr %1 to i64
  %4 = ptrtoint ptr %0 to i64
  %5 = alloca [64 x i8], align 16
  %6 = alloca %struct.in6_addr, align 4
  %7 = getelementptr inbounds nuw i8, ptr %0, i64 3
  %8 = icmp ugt ptr %7, %1
  br i1 %8, label %.loopexit, label %9

9:                                                ; preds = %2
  %10 = load i8, ptr %0, align 1
  %.not = icmp eq i8 %10, 91
  br i1 %.not, label %11, label %.loopexit

11:                                               ; preds = %9
  %12 = getelementptr inbounds i8, ptr %1, i64 -1
  %13 = load i8, ptr %12, align 1
  %.not31 = icmp eq i8 %13, 93
  br i1 %.not31, label %14, label %.loopexit

14:                                               ; preds = %11
  %15 = getelementptr inbounds nuw i8, ptr %0, i64 1
  %16 = load i8, ptr %15, align 1
  %17 = icmp eq i8 %16, 118
  br i1 %17, label %18, label %38

18:                                               ; preds = %14
  %19 = getelementptr inbounds nuw i8, ptr %0, i64 2
  %20 = load i8, ptr %19, align 1
  %21 = tail call i32 @EVUTIL_ISXDIGIT_(i8 noundef signext %20) #18
  %.not32 = icmp eq i32 %21, 0
  br i1 %.not32, label %.loopexit, label %.preheader

.preheader:                                       ; preds = %18
  %22 = icmp ult ptr %19, %12
  br i1 %22, label %.lr.ph.preheader, label %.critedgethread-pre-split

.lr.ph.preheader:                                 ; preds = %.preheader
  %scevgep = getelementptr i8, ptr inttoptr (i64 -1 to ptr), i64 %3
  br label %.lr.ph

.lr.ph:                                           ; preds = %.lr.ph.preheader, %26
  %.02745 = phi ptr [ %27, %26 ], [ %19, %.lr.ph.preheader ]
  %23 = load i8, ptr %.02745, align 1
  %.not33 = icmp eq i8 %23, 46
  br i1 %.not33, label %.critedge40.preheader, label %24

24:                                               ; preds = %.lr.ph
  %25 = tail call i32 @EVUTIL_ISXDIGIT_(i8 noundef signext %23) #18
  %.not38 = icmp eq i32 %25, 0
  br i1 %.not38, label %.loopexit, label %26

26:                                               ; preds = %24
  %27 = getelementptr inbounds nuw i8, ptr %.02745, i64 1
  %exitcond.not = icmp eq ptr %27, %scevgep
  br i1 %exitcond.not, label %.critedgethread-pre-split, label %.lr.ph, !llvm.loop !42

.critedgethread-pre-split:                        ; preds = %26, %.preheader
  %.027.lcssa = phi ptr [ %19, %.preheader ], [ %scevgep, %26 ]
  %.pr = load i8, ptr %.027.lcssa, align 1
  %28 = icmp eq i8 %.pr, 46
  br i1 %28, label %.critedge40.preheader, label %.loopexit

.critedge40.preheader:                            ; preds = %.lr.ph, %.critedgethread-pre-split
  %.02744 = phi ptr [ %.027.lcssa, %.critedgethread-pre-split ], [ %.02745, %.lr.ph ]
  %.12846 = getelementptr inbounds nuw i8, ptr %.02744, i64 1
  %29 = icmp ult ptr %.12846, %12
  br i1 %29, label %.lr.ph48.preheader, label %.loopexit

.lr.ph48.preheader:                               ; preds = %.critedge40.preheader
  %scevgep55 = getelementptr i8, ptr inttoptr (i64 -1 to ptr), i64 %3
  br label %.lr.ph48

.lr.ph48:                                         ; preds = %.lr.ph48.preheader, %.critedge40
  %.12847 = phi ptr [ %.128, %.critedge40 ], [ %.12846, %.lr.ph48.preheader ]
  %30 = load i8, ptr %.12847, align 1
  %31 = zext i8 %30 to i64
  %32 = getelementptr inbounds nuw [256 x i8], ptr @uri_chars, i64 0, i64 %31
  %33 = load i8, ptr %32, align 1
  %.not35 = icmp eq i8 %33, 0
  br i1 %.not35, label %34, label %.critedge40

34:                                               ; preds = %.lr.ph48
  %memchr.bounds = icmp ult i8 %30, 64
  %35 = shl nuw i64 1, %31
  %36 = and i64 %35, 2882338748320710657
  %memchr.bits = icmp ne i64 %36, 0
  %memchr36.not.not39 = select i1 %memchr.bounds, i1 %memchr.bits, i1 false
  %37 = icmp eq i8 %30, 58
  %or.cond = or i1 %37, %memchr36.not.not39
  br i1 %or.cond, label %.critedge40, label %.loopexit

.critedge40:                                      ; preds = %34, %.lr.ph48
  %.128 = getelementptr inbounds nuw i8, ptr %.12847, i64 1
  %exitcond56.not = icmp eq ptr %.128, %scevgep55
  br i1 %exitcond56.not, label %.loopexit, label %.lr.ph48, !llvm.loop !43

38:                                               ; preds = %14
  call void @llvm.lifetime.start.p0(i64 64, ptr nonnull %5) #18
  %39 = sub i64 %3, %4
  call void @llvm.lifetime.start.p0(i64 16, ptr nonnull %6) #18
  %40 = icmp sgt i64 %39, 65
  br i1 %40, label %47, label %41

41:                                               ; preds = %38
  %42 = add nsw i64 %39, -2
  call void @llvm.memcpy.p0.p0.i64(ptr nonnull align 16 %5, ptr nonnull align 1 %15, i64 %42, i1 false)
  %43 = getelementptr inbounds [64 x i8], ptr %5, i64 0, i64 %42
  store i8 0, ptr %43, align 1
  %44 = call i32 @evutil_inet_pton(i32 noundef 10, ptr noundef nonnull %5, ptr noundef nonnull %6) #18
  %45 = icmp eq i32 %44, 1
  %46 = zext i1 %45 to i32
  br label %47

47:                                               ; preds = %38, %41
  %.1 = phi i32 [ %46, %41 ], [ 0, %38 ]
  call void @llvm.lifetime.end.p0(i64 16, ptr nonnull %6) #18
  call void @llvm.lifetime.end.p0(i64 64, ptr nonnull %5) #18
  br label %.loopexit

.loopexit:                                        ; preds = %24, %34, %.critedge40, %.critedge40.preheader, %.critedgethread-pre-split, %18, %2, %9, %11, %47
  %.0 = phi i32 [ %.1, %47 ], [ 0, %11 ], [ 0, %9 ], [ 0, %2 ], [ 0, %18 ], [ 0, %.critedgethread-pre-split ], [ 2, %.critedge40.preheader ], [ 0, %34 ], [ 2, %.critedge40 ], [ 0, %24 ]
  ret i32 %.0
}